Certificate:
    Data:
        Version: 3 (0x2)
        Serial Number: 2 (0x2)
    Signature Algorithm: sha256WithRSAEncryption
        Issuer: C=FR, ST=Radius, L=Somewhere, O=Example Inc./emailAddress=admin@example.org, CN=Example Certificate Authority
        Validity
            Not Before: Dec  4 09:51:00 2019 GMT
            Not After : Feb  2 09:51:00 2020 GMT
        Subject: C=FR, ST=Radius, O=Example Inc., CN=user@example.org/emailAddress=user@example.org
        Subject Public Key Info:
            Public Key Algorithm: rsaEncryption
                Public-Key: (2048 bit)
                Modulus:
                    00:c1:a6:2f:d1:22:8a:f7:88:38:0a:2c:a7:a8:1d:
                    4e:b9:ef:68:ae:69:bf:e9:cf:4c:fa:2c:be:7c:06:
                    f5:3a:ad:65:7d:62:7a:84:94:d4:ed:1b:99:af:fb:
                    14:2b:9b:93:4e:a3:fe:54:b4:ae:a6:ff:11:4b:f0:
                    70:a1:9a:0a:17:7c:a0:76:f2:c4:62:49:98:29:2f:
                    20:b5:39:d1:eb:67:d4:bd:75:b6:0b:cf:15:12:07:
                    6f:0f:e6:29:66:b8:e4:e0:57:6f:a4:3a:d9:13:2b:
                    93:d6:26:6e:05:71:b0:44:28:9f:b6:9f:49:e8:3d:
                    43:d4:f9:cc:cf:15:30:87:a5:67:c5:e2:88:f3:7a:
                    8a:fa:85:ea:86:5f:39:7c:a6:f3:4e:75:40:ac:1c:
                    96:90:da:2b:8f:97:34:2c:d6:d3:94:35:b8:94:fa:
                    68:8d:97:1a:4e:44:58:9b:b7:31:b9:00:52:72:eb:
                    27:89:5b:e3:89:96:44:27:ea:20:1b:fb:cc:ff:15:
                    01:06:05:a6:9c:07:27:90:2a:b5:15:7c:28:0b:ca:
                    53:0b:c7:3b:e5:d0:db:51:f8:b1:fd:48:eb:1e:c7:
                    7a:25:a6:0a:61:d9:d7:8b:9a:d6:89:3a:36:59:e3:
                    2d:23:d2:ef:37:67:e8:fd:4e:d6:ec:d8:3d:2d:eb:
                    36:0d
                Exponent: 65537 (0x10001)
        X509v3 extensions:
            X509v3 Extended Key Usage: 
                TLS Web Client Authentication
            X509v3 CRL Distribution Points: 

                Full Name:
                  URI:http://www.example.com/example_ca.crl

    Signature Algorithm: sha256WithRSAEncryption
         42:9a:c3:c1:48:82:9d:3f:03:54:33:11:00:59:7c:fd:b7:62:
         3e:26:10:b1:28:33:49:ed:78:b5:47:23:44:39:f6:4a:8e:2b:
         37:15:47:35:1e:45:5c:89:f3:55:79:4c:4b:55:a2:7e:40:1b:
         32:4b:c4:d8:64:25:89:d7:80:04:bc:61:55:bb:ed:7a:8e:35:
         3c:13:a2:dd:28:94:a3:12:db:c1:e1:13:f4:73:ab:71:8b:54:
         8c:0d:fe:e3:ac:d6:ef:38:fb:d6:ff:ac:b1:44:40:2e:b6:af:
         0d:ea:0f:3a:96:7b:98:69:5f:ae:d0:e4:3d:6a:90:e5:64:2e:
         2b:9a:05:b7:0d:54:c2:70:81:51:38:16:fe:9d:78:fd:95:f0:
         91:61:99:17:aa:d3:8f:21:af:84:1a:8c:eb:dc:af:62:de:e9:
         a5:9c:0b:47:17:95:7c:b1:33:20:d8:7e:77:ef:5f:5d:a3:4f:
         71:d4:a5:8c:6a:fb:7c:a6:63:4b:ff:67:0e:2b:1e:eb:10:cf:
         9e:0c:5c:90:76:b2:95:65:af:4f:13:77:3d:14:f3:74:7d:b5:
         98:eb:a5:c2:98:81:91:30:d5:64:51:11:d5:ab:c5:91:75:19:
         54:52:24:3e:fb:e0:18:1b:d0:b5:9f:81:2b:ec:8c:c8:6b:50:
         49:cb:6a:6b
-----BEGIN CERTIFICATE-----
MIIDzzCCAregAwIBAgIBAjANBgkqhkiG9w0BAQsFADCBkzELMAkGA1UEBhMCRlIx
DzANBgNVBAgMBlJhZGl1czESMBAGA1UEBwwJU29tZXdoZXJlMRUwEwYDVQQKDAxF
eGFtcGxlIEluYy4xIDAeBgkqhkiG9w0BCQEWEWFkbWluQGV4YW1wbGUub3JnMSYw
JAYDVQQDDB1FeGFtcGxlIENlcnRpZmljYXRlIEF1dGhvcml0eTAeFw0xOTEyMDQw
OTUxMDBaFw0yMDAyMDIwOTUxMDBaMHExCzAJBgNVBAYTAkZSMQ8wDQYDVQQIDAZS
YWRpdXMxFTATBgNVBAoMDEV4YW1wbGUgSW5jLjEZMBcGA1UEAwwQdXNlckBleGFt
cGxlLm9yZzEfMB0GCSqGSIb3DQEJARYQdXNlckBleGFtcGxlLm9yZzCCASIwDQYJ
KoZIhvcNAQEBBQADggEPADCCAQoCggEBAMGmL9EiiveIOAosp6gdTrnvaK5pv+nP
TPosvnwG9TqtZX1ieoSU1O0bma/7FCubk06j/lS0rqb/EUvwcKGaChd8oHbyxGJJ
mCkvILU50etn1L11tgvPFRIHbw/mKWa45OBXb6Q62RMrk9YmbgVxsEQon7afSeg9
Q9T5zM8VMIelZ8XiiPN6ivqF6oZfOXym8051QKwclpDaK4+XNCzW05Q1uJT6aI2X
Gk5EWJu3MbkAUnLrJ4lb44mWRCfqIBv7zP8VAQYFppwHJ5AqtRV8KAvKUwvHO+XQ
21H4sf1I6x7HeiWmCmHZ14ua1ok6NlnjLSPS7zdn6P1O1uzYPS3rNg0CAwEAAaNP
ME0wEwYDVR0lBAwwCgYIKwYBBQUHAwIwNgYDVR0fBC8wLTAroCmgJ4YlaHR0cDov
L3d3dy5leGFtcGxlLmNvbS9leGFtcGxlX2NhLmNybDANBgkqhkiG9w0BAQsFAAOC
AQEAQprDwUiCnT8DVDMRAFl8/bdiPiYQsSgzSe14tUcjRDn2So4rNxVHNR5FXInz
VXlMS1WifkAbMkvE2GQlideABLxhVbvteo41PBOi3SiUoxLbweET9HOrcYtUjA3+
46zW7zj71v+ssURALravDeoPOpZ7mGlfrtDkPWqQ5WQuK5oFtw1UwnCBUTgW/p14
/ZXwkWGZF6rTjyGvhBqM69yvYt7ppZwLRxeVfLEzINh+d+9fXaNPcdSljGr7fKZj
S/9nDise6xDPngxckHaylWWvTxN3PRTzdH21mOulwpiBkTDVZFER1avFkXUZVFIk
PvvgGBvQtZ+BK+yMyGtQSctqaw==
-----END CERTIFICATE-----
