Certificate:
    Data:
        Version: 3 (0x2)
        Serial Number: 1 (0x1)
    Signature Algorithm: sha256WithRSAEncryption
        Issuer: C=FR, ST=Radius, L=Somewhere, O=Example Inc./emailAddress=admin@example.org, CN=Example Certificate Authority
        Validity
            Not Before: Dec  4 09:51:00 2019 GMT
            Not After : Feb  2 09:51:00 2020 GMT
        Subject: C=FR, ST=Radius, O=Example Inc., CN=Example Server Certificate/emailAddress=admin@example.org
        Subject Public Key Info:
            Public Key Algorithm: rsaEncryption
                Public-Key: (2048 bit)
                Modulus:
                    00:9d:cf:dc:9a:46:32:a0:72:69:99:aa:50:af:3f:
                    fc:d2:27:da:42:90:7d:13:fb:b3:4c:38:b8:99:42:
                    db:9a:78:68:54:56:54:7f:b0:90:43:7c:4b:8d:c3:
                    9f:b7:a6:44:5a:dc:18:40:29:14:f7:41:da:27:94:
                    e8:8d:df:b1:70:79:93:05:df:ef:0a:8e:5f:de:6c:
                    65:fe:3a:14:ec:ba:46:4a:94:e2:86:63:be:de:42:
                    b1:6a:b5:9c:34:e5:42:f1:c5:5f:41:47:1a:68:8f:
                    73:02:9b:a8:d2:56:45:45:68:77:14:02:a8:a7:6e:
                    a5:1a:df:00:a0:bd:42:2f:12:b1:a8:c5:63:06:f0:
                    e7:22:eb:69:e7:5e:c1:ac:69:96:3c:34:5e:9c:50:
                    bb:61:9c:e2:0b:86:ce:08:b6:fa:a1:a9:70:f1:a6:
                    91:b8:ac:8b:41:44:90:81:cd:6b:d8:c9:8c:e9:f4:
                    13:1c:d0:22:48:64:f5:04:11:dd:c0:78:b4:5f:3e:
                    2c:fe:ca:c0:88:1b:0a:c1:35:d4:80:c6:d8:77:d7:
                    8b:7a:44:a1:4e:21:6e:2e:32:64:e6:4f:8f:96:4f:
                    33:68:82:e4:07:6c:12:33:68:4f:6a:12:b1:97:a5:
                    74:bb:fe:61:e5:ce:42:08:bd:95:c3:76:cd:98:9f:
                    61:a1
                Exponent: 65537 (0x10001)
        X509v3 extensions:
            X509v3 Extended Key Usage: 
                TLS Web Server Authentication
            X509v3 CRL Distribution Points: 

                Full Name:
                  URI:http://www.example.com/example_ca.crl

    Signature Algorithm: sha256WithRSAEncryption
         81:3e:0c:1e:08:61:92:d5:07:7b:b8:fa:ca:6e:0a:25:cc:8d:
         db:27:7c:1c:50:a0:f4:e9:8d:a4:8e:87:38:b9:0c:ba:5d:a5:
         37:0b:4d:d7:de:1a:bf:68:c3:fe:a2:aa:c6:27:75:90:b3:50:
         c8:9f:ff:3f:38:51:12:be:39:f8:4f:4b:48:73:b5:0b:3e:98:
         e1:e4:f2:7f:0b:7f:a3:2a:d9:7a:f9:7b:dc:2f:b5:1b:d3:5d:
         f4:e4:e8:87:f9:48:c0:9b:d1:95:ea:0d:f0:ab:d4:7f:ed:ee:
         14:37:67:61:c6:ee:32:90:fc:c5:51:ed:41:fe:2c:33:6b:14:
         ca:cf:2f:29:9f:c7:b3:bc:e5:b4:ca:74:3f:b2:ac:5c:52:01:
         f2:65:a8:5d:21:c5:99:29:41:62:93:a1:89:49:71:5d:c5:b4:
         61:97:8a:6f:13:13:67:40:8f:18:e7:91:c9:d5:52:10:ee:90:
         ea:f1:37:ba:54:9b:a0:0c:d0:06:ae:b0:53:e8:fa:7e:51:a8:
         6f:53:19:0e:8d:2b:d2:d0:85:11:93:22:c4:65:d6:72:08:dc:
         35:b8:78:3a:97:f0:c9:42:e0:17:a0:76:81:4b:68:71:c6:67:
         fc:6e:bd:ed:ff:1f:76:bd:01:b8:3a:ea:2e:03:70:e4:b4:20:
         28:68:3e:2c
-----BEGIN CERTIFICATE-----
MIID2jCCAsKgAwIBAgIBATANBgkqhkiG9w0BAQsFADCBkzELMAkGA1UEBhMCRlIx
DzANBgNVBAgMBlJhZGl1czESMBAGA1UEBwwJU29tZXdoZXJlMRUwEwYDVQQKDAxF
eGFtcGxlIEluYy4xIDAeBgkqhkiG9w0BCQEWEWFkbWluQGV4YW1wbGUub3JnMSYw
JAYDVQQDDB1FeGFtcGxlIENlcnRpZmljYXRlIEF1dGhvcml0eTAeFw0xOTEyMDQw
OTUxMDBaFw0yMDAyMDIwOTUxMDBaMHwxCzAJBgNVBAYTAkZSMQ8wDQYDVQQIDAZS
YWRpdXMxFTATBgNVBAoMDEV4YW1wbGUgSW5jLjEjMCEGA1UEAwwaRXhhbXBsZSBT
ZXJ2ZXIgQ2VydGlmaWNhdGUxIDAeBgkqhkiG9w0BCQEWEWFkbWluQGV4YW1wbGUu
b3JnMIIBIjANBgkqhkiG9w0BAQEFAAOCAQ8AMIIBCgKCAQEAnc/cmkYyoHJpmapQ
rz/80ifaQpB9E/uzTDi4mULbmnhoVFZUf7CQQ3xLjcOft6ZEWtwYQCkU90HaJ5To
jd+xcHmTBd/vCo5f3mxl/joU7LpGSpTihmO+3kKxarWcNOVC8cVfQUcaaI9zApuo
0lZFRWh3FAKop26lGt8AoL1CLxKxqMVjBvDnIutp517BrGmWPDRenFC7YZziC4bO
CLb6oalw8aaRuKyLQUSQgc1r2MmM6fQTHNAiSGT1BBHdwHi0Xz4s/srAiBsKwTXU
gMbYd9eLekShTiFuLjJk5k+Plk8zaILkB2wSM2hPahKxl6V0u/5h5c5CCL2Vw3bN
mJ9hoQIDAQABo08wTTATBgNVHSUEDDAKBggrBgEFBQcDATA2BgNVHR8ELzAtMCug
KaAnhiVodHRwOi8vd3d3LmV4YW1wbGUuY29tL2V4YW1wbGVfY2EuY3JsMA0GCSqG
SIb3DQEBCwUAA4IBAQCBPgweCGGS1Qd7uPrKbgolzI3bJ3wcUKD06Y2kjoc4uQy6
XaU3C03X3hq/aMP+oqrGJ3WQs1DIn/8/OFESvjn4T0tIc7ULPpjh5PJ/C3+jKtl6
+XvcL7Ub01305OiH+UjAm9GV6g3wq9R/7e4UN2dhxu4ykPzFUe1B/iwzaxTKzy8p
n8ezvOW0ynQ/sqxcUgHyZahdIcWZKUFik6GJSXFdxbRhl4pvExNnQI8Y55HJ1VIQ
7pDq8Te6VJugDNAGrrBT6Pp+UahvUxkOjSvS0IURkyLEZdZyCNw1uHg6l/DJQuAX
oHaBS2hxxmf8br3t/x92vQG4OuouA3DktCAoaD4s
-----END CERTIFICATE-----
